target datalayout = "e-m:e-p270:32:32-p271:32:32-p272:64:64-i64:64-i128:128-f80:128-n8:16:32:64-S128"
target triple = "x86_64-pc-linux-gnu"

%class.G1Policy = type { ptr, %class.G1Predictions, ptr, %class.G1RemSetTrackingPolicy, ptr, %class.G1OldGenAllocationTracker, ptr, ptr, double, i32, i32, i32, ptr, ptr, double, i32, %class.G1YoungGenSizer, i32, i64, i64, %class.G1ConcurrentStartToMixedTimeTracker, ptr, ptr, ptr, ptr, double, double, i32, i32, %class.AgeTable }
%class.G1Predictions = type { double }
%class.G1RemSetTrackingPolicy = type { i8 }
%class.G1OldGenAllocationTracker = type { i64, i64, i64, i64, i64 }
%class.G1YoungGenSizer = type { ptr, i32, i8, i32, i32 }
%class.G1ConcurrentStartToMixedTimeTracker = type { i8, double, double, double }
%class.AgeTable = type { [16 x i64], i8, [16 x ptr] }
%"struct.Atomic::LoadImpl.12" = type { i8 }
%"struct.Atomic::PlatformLoad.13" = type { i8 }

@_ZN12G1HeapRegion10GrainBytesE = external global i64, align 8

; Function Attrs: mustprogress nounwind uwtable
define linkonce_odr hidden noundef i32 @_ZNK6Atomic12PlatformLoadILm4EEclIjEET_PVKS3_(ptr noundef nonnull align 1 dereferenceable(1) %0, ptr noundef %1) #1 comdat align 2 {
  %3 = alloca ptr, align 8
  %4 = alloca ptr, align 8
  store ptr %0, ptr %3, align 8
  store ptr %1, ptr %4, align 8
  %5 = load ptr, ptr %4, align 8
  %6 = load volatile i32, ptr %5, align 4
  ret i32 %6
}

; Function Attrs: mustprogress nounwind uwtable
define linkonce_odr hidden noundef i32 @_ZNK6Atomic8LoadImplIjNS_12PlatformLoadILm4EEEvEclEPVKj(ptr noundef nonnull align 1 dereferenceable(1) %0, ptr noundef %1) #1 comdat align 2 {
  %3 = alloca ptr, align 8
  %4 = alloca ptr, align 8
  %5 = alloca %"struct.Atomic::PlatformLoad.13", align 1
  store ptr %0, ptr %3, align 8
  store ptr %1, ptr %4, align 8
  %6 = load ptr, ptr %4, align 8
  %7 = call noundef i32 @_ZNK6Atomic12PlatformLoadILm4EEclIjEET_PVKS3_(ptr noundef nonnull align 1 dereferenceable(1) %5, ptr noundef %6)
  ret i32 %7
}

; Function Attrs: mustprogress nounwind uwtable
define linkonce_odr hidden noundef i32 @_ZN6Atomic4loadIjEET_PVKS1_(ptr noundef %0) #1 comdat align 2 {
  %2 = alloca ptr, align 8
  %3 = alloca %"struct.Atomic::LoadImpl.12", align 1
  store ptr %0, ptr %2, align 8
  %4 = load ptr, ptr %2, align 8
  %5 = call noundef i32 @_ZNK6Atomic8LoadImplIjNS_12PlatformLoadILm4EEEvEclEPVKj(ptr noundef nonnull align 1 dereferenceable(1) %3, ptr noundef %4)
  ret i32 %5
}

; Function Attrs: mustprogress nounwind uwtable
define linkonce_odr hidden void @_ZN35G1ConcurrentStartToMixedTimeTracker5resetEv(ptr noundef nonnull align 8 dereferenceable(32) %0) #1 comdat align 2 {
  %2 = alloca ptr, align 8
  store ptr %0, ptr %2, align 8
  %3 = load ptr, ptr %2, align 8
  %4 = getelementptr inbounds %class.G1ConcurrentStartToMixedTimeTracker, ptr %3, i32 0, i32 0
  store i8 0, ptr %4, align 8
  %5 = getelementptr inbounds %class.G1ConcurrentStartToMixedTimeTracker, ptr %3, i32 0, i32 3
  store double 0.000000e+00, ptr %5, align 8
  %6 = getelementptr inbounds %class.G1ConcurrentStartToMixedTimeTracker, ptr %3, i32 0, i32 1
  store double -1.000000e+00, ptr %6, align 8
  %7 = getelementptr inbounds %class.G1ConcurrentStartToMixedTimeTracker, ptr %3, i32 0, i32 2
  store double -1.000000e+00, ptr %7, align 8
  ret void
}

; Function Attrs: mustprogress nounwind uwtable
define hidden void @_ZN8G1Policy22report_ihop_statisticsEv(ptr noundef nonnull align 8 dereferenceable(552) %0) #1 align 2 {
  %2 = alloca ptr, align 8
  store ptr %0, ptr %2, align 8
  %3 = load ptr, ptr %2, align 8
  %4 = getelementptr inbounds %class.G1Policy, ptr %3, i32 0, i32 6
  %5 = load ptr, ptr %4, align 8
  %6 = load ptr, ptr %5, align 8
  %7 = getelementptr inbounds ptr, ptr %6, i64 7
  %8 = load ptr, ptr %7, align 8
  call void %8(ptr noundef nonnull align 8 dereferenceable(40) %5)
  ret void
}

; Function Attrs: mustprogress nounwind uwtable
define linkonce_odr hidden noundef i32 @_ZNK8G1Policy25young_list_desired_lengthEv(ptr noundef nonnull align 8 dereferenceable(552) %0) #1 comdat align 2 {
  %2 = alloca ptr, align 8
  store ptr %0, ptr %2, align 8
  %3 = load ptr, ptr %2, align 8
  %4 = getelementptr inbounds %class.G1Policy, ptr %3, i32 0, i32 9
  %5 = call noundef i32 @_ZN6Atomic4loadIjEET_PVKS1_(ptr noundef %4)
  ret i32 %5
}

; Function Attrs: mustprogress nounwind uwtable
define linkonce_odr hidden noundef double @_ZN35G1ConcurrentStartToMixedTimeTracker17last_marking_timeEv(ptr noundef nonnull align 8 dereferenceable(32) %0) #1 comdat align 2 {
  %2 = alloca ptr, align 8
  %3 = alloca double, align 8
  store ptr %0, ptr %2, align 8
  %4 = load ptr, ptr %2, align 8
  %5 = getelementptr inbounds %class.G1ConcurrentStartToMixedTimeTracker, ptr %4, i32 0, i32 2
  %6 = load double, ptr %5, align 8
  %7 = getelementptr inbounds %class.G1ConcurrentStartToMixedTimeTracker, ptr %4, i32 0, i32 1
  %8 = load double, ptr %7, align 8
  %9 = fsub double %6, %8
  %10 = getelementptr inbounds %class.G1ConcurrentStartToMixedTimeTracker, ptr %4, i32 0, i32 3
  %11 = load double, ptr %10, align 8
  %12 = fsub double %9, %11
  store double %12, ptr %3, align 8
  call void @_ZN35G1ConcurrentStartToMixedTimeTracker5resetEv(ptr noundef nonnull align 8 dereferenceable(32) %4)
  %13 = load double, ptr %3, align 8
  ret double %13
}

; Function Attrs: mustprogress nounwind uwtable
define linkonce_odr hidden noundef zeroext i1 @_ZNK35G1ConcurrentStartToMixedTimeTracker10has_resultEv(ptr noundef nonnull align 8 dereferenceable(32) %0) #1 comdat align 2 {
  %2 = alloca ptr, align 8
  store ptr %0, ptr %2, align 8
  %3 = load ptr, ptr %2, align 8
  %4 = getelementptr inbounds %class.G1ConcurrentStartToMixedTimeTracker, ptr %3, i32 0, i32 2
  %5 = load double, ptr %4, align 8
  %6 = fcmp ogt double %5, 0.000000e+00
  br i1 %6, label %7, label %11

7:                                                ; preds = %1
  %8 = getelementptr inbounds %class.G1ConcurrentStartToMixedTimeTracker, ptr %3, i32 0, i32 1
  %9 = load double, ptr %8, align 8
  %10 = fcmp ogt double %9, 0.000000e+00
  br label %11

11:                                               ; preds = %7, %1
  %12 = phi i1 [ false, %1 ], [ %10, %7 ]
  ret i1 %12
}

; Function Attrs: mustprogress nounwind uwtable
define hidden void @_ZN8G1Policy22update_ihop_predictionEdb(ptr noundef nonnull align 8 dereferenceable(552) %0, double noundef %1, i1 noundef zeroext %2) #1 align 2 {
  %4 = alloca ptr, align 8
  %5 = alloca double, align 8
  %6 = alloca i8, align 1
  %7 = alloca double, align 8
  %8 = alloca i8, align 1
  %9 = alloca double, align 8
  %10 = alloca i64, align 8
  store ptr %0, ptr %4, align 8
  store double %1, ptr %5, align 8
  %11 = zext i1 %2 to i8
  store i8 %11, ptr %6, align 1
  %12 = load ptr, ptr %4, align 8
  store double 0x3EB0C6F7A0B5ED8D, ptr %7, align 8
  store i8 0, ptr %8, align 1
  store double -1.000000e+00, ptr %9, align 8
  %13 = load i8, ptr %6, align 1
  %14 = trunc i8 %13 to i1
  br i1 %14, label %31, label %15

15:                                               ; preds = %3
  %16 = getelementptr inbounds %class.G1Policy, ptr %12, i32 0, i32 20
  %17 = call noundef zeroext i1 @_ZNK35G1ConcurrentStartToMixedTimeTracker10has_resultEv(ptr noundef nonnull align 8 dereferenceable(32) %16)
  br i1 %17, label %18, label %31

18:                                               ; preds = %15
  %19 = getelementptr inbounds %class.G1Policy, ptr %12, i32 0, i32 20
  %20 = call noundef double @_ZN35G1ConcurrentStartToMixedTimeTracker17last_marking_timeEv(ptr noundef nonnull align 8 dereferenceable(32) %19)
  store double %20, ptr %9, align 8
  %21 = load double, ptr %9, align 8
  %22 = fcmp ogt double %21, 0x3EB0C6F7A0B5ED8D
  br i1 %22, label %23, label %30

23:                                               ; preds = %18
  %24 = getelementptr inbounds %class.G1Policy, ptr %12, i32 0, i32 6
  %25 = load ptr, ptr %24, align 8
  %26 = load double, ptr %9, align 8
  %27 = load ptr, ptr %25, align 8
  %28 = getelementptr inbounds ptr, ptr %27, i64 6
  %29 = load ptr, ptr %28, align 8
  call void %29(ptr noundef nonnull align 8 dereferenceable(40) %25, double noundef %26)
  store i8 1, ptr %8, align 1
  br label %30

30:                                               ; preds = %23, %18
  br label %31

31:                                               ; preds = %30, %15, %3
  %32 = load i8, ptr %6, align 1
  %33 = trunc i8 %32 to i1
  br i1 %33, label %34, label %49

34:                                               ; preds = %31
  %35 = load double, ptr %5, align 8
  %36 = fcmp ogt double %35, 0x3EB0C6F7A0B5ED8D
  br i1 %36, label %37, label %49

37:                                               ; preds = %34
  %38 = call noundef i32 @_ZNK8G1Policy25young_list_desired_lengthEv(ptr noundef nonnull align 8 dereferenceable(552) %12)
  %39 = zext i32 %38 to i64
  %40 = load i64, ptr @_ZN12G1HeapRegion10GrainBytesE, align 8
  %41 = mul i64 %39, %40
  store i64 %41, ptr %10, align 8
  %42 = getelementptr inbounds %class.G1Policy, ptr %12, i32 0, i32 6
  %43 = load ptr, ptr %42, align 8
  %44 = load double, ptr %5, align 8
  %45 = load i64, ptr %10, align 8
  %46 = load ptr, ptr %43, align 8
  %47 = getelementptr inbounds ptr, ptr %46, i64 5
  %48 = load ptr, ptr %47, align 8
  call void %48(ptr noundef nonnull align 8 dereferenceable(40) %43, double noundef %44, i64 noundef %45)
  store i8 1, ptr %8, align 1
  br label %49

49:                                               ; preds = %37, %34, %31
  %50 = load i8, ptr %8, align 1
  %51 = trunc i8 %50 to i1
  br i1 %51, label %52, label %53

52:                                               ; preds = %49
  call void @_ZN8G1Policy22report_ihop_statisticsEv(ptr noundef nonnull align 8 dereferenceable(552) %12)
  br label %53

53:                                               ; preds = %52, %49
  ret void
}