; Function Attrs: mustprogress nounwind uwtable
define hidden void @_ZN8G1Policy22update_ihop_predictionEdb(ptr noundef nonnull align 8 dereferenceable(552) %0, double noundef %1, i1 noundef zeroext %2) local_unnamed_addr #1 align 2 {
  br i1 %2, label %19, label %4

4:                                                ; preds = %3
  %5 = getelementptr inbounds i8, ptr %0, i64 216
  %6 = load double, ptr %5, align 8
  %7 = fcmp ogt double %6, 0.000000e+00
  %8 = getelementptr inbounds i8, ptr %0, i64 208
  %9 = load double, ptr %8, align 8
  %10 = fcmp ogt double %9, 0.000000e+00
  %11 = select i1 %7, i1 %10, i1 false
  br i1 %11, label %12, label %.thread14

12:                                               ; preds = %4
  %13 = getelementptr inbounds i8, ptr %0, i64 200
  %14 = fsub double %6, %9
  %15 = getelementptr inbounds i8, ptr %0, i64 224
  %16 = load double, ptr %15, align 8
  %17 = fsub double %14, %16
  store i8 0, ptr %13, align 8
  store double 0.000000e+00, ptr %15, align 8
  store <2 x double> <double -1.000000e+00, double -1.000000e+00>, ptr %8, align 8
  %18 = fcmp ogt double %17, 0x3EB0C6F7A0B5ED8D
  br i1 %18, label %31, label %.thread14

19:                                               ; preds = %3
  %20 = fcmp ogt double %1, 0x3EB0C6F7A0B5ED8D
  br i1 %20, label %.critedge, label %.thread14

.critedge:                                        ; preds = %19
  %21 = getelementptr inbounds i8, ptr %0, i64 104
  %22 = load volatile i32, ptr %21, align 8
  %23 = zext i32 %22 to i64
  %24 = load i64, ptr @_ZN12G1HeapRegion10GrainBytesE, align 8
  %25 = mul i64 %24, %23
  %26 = getelementptr inbounds i8, ptr %0, i64 80
  %27 = load ptr, ptr %26, align 8
  %28 = load ptr, ptr %27, align 8
  %29 = getelementptr inbounds i8, ptr %28, i64 40
  %30 = load ptr, ptr %29, align 8
  tail call void %30(ptr noundef nonnull align 8 dereferenceable(40) %27, double noundef %1, i64 noundef %25) #18
  br label %37

31:                                               ; preds = %12
  %32 = getelementptr inbounds i8, ptr %0, i64 80
  %33 = load ptr, ptr %32, align 8
  %34 = load ptr, ptr %33, align 8
  %35 = getelementptr inbounds i8, ptr %34, i64 48
  %36 = load ptr, ptr %35, align 8
  tail call void %36(ptr noundef nonnull align 8 dereferenceable(40) %33, double noundef %17) #18
  br label %37

37:                                               ; preds = %31, %.critedge
  %38 = getelementptr inbounds i8, ptr %0, i64 80
  %39 = load ptr, ptr %38, align 8
  %40 = load ptr, ptr %39, align 8
  %41 = getelementptr inbounds i8, ptr %40, i64 56
  %42 = load ptr, ptr %41, align 8
  tail call void %42(ptr noundef nonnull align 8 dereferenceable(40) %39) #18
  br label %.thread14

.thread14:                                        ; preds = %12, %4, %19, %37
  ret void
}